(dp1
S'session'
p2
(dp3
S'unique_user'
p4
S'4/KR7Exf3ZcXV57WBFH1cvWLbTBzI8qnO5Wau5doWy4Ec.krCvgWMqHhccXmXvfARQvtia0KZ0kgI'
p5
sS'_accessed_time'
p6
F1414022665.5693991
sS'email'
p7
Vtyler1314321@gmail.com
p8
sS'_creation_time'
p9
F1414022659.2389531
ss.