(dp1
S'session'
p2
(dp3
S'unique_user'
p4
S'4/0g38Q5ogiSOEKYppUVjMwoIh_E4eJBU3lJ2uTeBAHUI.0iiM3jEhnXIaXmXvfARQvth0SY6FkgI'
p5
sS'_accessed_time'
p6
F1414164475.001163
sS'email'
p7
Vtyler1314321@gmail.com
p8
sS'_creation_time'
p9
F1414164467.1606071
ss.