(dp1
S'session'
p2
(dp3
S'unique_user'
p4
S'4/dQXsSrkjZ44fyyxdmBFXG41dumqIyorazaq91o2o0jI.8mbhy3n4avcRXmXvfARQvth-27SFkgI'
p5
sS'_accessed_time'
p6
F1414166028.5452681
sS'email'
p7
Vtyler1314321@gmail.com
p8
sS'_creation_time'
p9
F1414165730.5097809
ss.