(dp1
S'session'
p2
(dp3
S'unique_user'
p4
S'4/yzA53ZQmwVhgjvip9yV7L1eqoo26AyKgil-BjIrQB6E.otjLNW80DecXXmXvfARQvtgGnTqFkgI'
p5
sS'_accessed_time'
p6
F1414161731.9881771
sS'email'
p7
Vtyler1314321@gmail.com
p8
sS'_creation_time'
p9
F1414161724.193892
ss.