(dp1
S'session'
p2
(dp3
S'unique_user'
p4
S'4/HOy964MCxS5U_HRfWtWdCBOG5cMoEgubGiCf3dydz0w.8gucRBcYlOgeXmXvfARQvthySs2FkgI'
p5
sS'_accessed_time'
p6
F1414166657.9658649
sS'email'
p7
Vtyler1314321@gmail.com
p8
sS'_creation_time'
p9
F1414166479.6036301
ss.