(dp1
S'session'
p2
(dp3
S'unique_user'
p4
S'4/ETRv81SySU0mLzE9JaxSf0N1f_q6ev-NdNubFeZQQZw.8szODpB5oDsYXmXvfARQvth65FCFkgI'
p5
sS'_accessed_time'
p6
F1414162731.1259489
sS'email'
p7
Vtyler1314321@gmail.com
p8
sS'_creation_time'
p9
F1414162454.4698391
ss.