(dp1
S'session'
p2
(dp3
S'unique_user'
p4
S'4/mZMrt14si2jl_fs4YjszT0lsmdO--EfyA3rx4JHDjMM.Ih-f-dpb3WgYXmXvfARQvtgCDXCFkgI'
p5
sS'_accessed_time'
p6
F1414163656.2545669
sS'email'
p7
Vtyler1314321@gmail.com
p8
sS'_creation_time'
p9
F1414163475.4145391
ss.