(dp1
S'session'
p2
(dp3
S'unique_user'
p4
S'4/P0voGcuBcl9kNHvRreNB1yevKvDbfTp2A0Jb_-ioKiU.4rSYnHtOoUUWXmXvfARQvtgiM6uFkgI'
p5
sS'_accessed_time'
p6
F1414165596.010608
sS'email'
p7
Vtyler1314321@gmail.com
p8
sS'_creation_time'
p9
F1414165413.8118269
ss.