(dp1
S'session'
p2
(dp3
S'unique_user'
p4
S'4/IMrj0-cCqPB04oFo0IV0eBczgSUhuAAIQCA8G0jIbwY.0u7sNx5uYyAdXmXvfARQvthyakWFkgI'
p5
sS'_accessed_time'
p6
F1414162082.5120659
sS'email'
p7
Vtyler1314321@gmail.com
p8
sS'_creation_time'
p9
F1414162078.704941
ss.