(dp1
S'session'
p2
(dp3
S'unique_user'
p4
S'4/PEU_QSfKvqkY7ptOaxg-Il38cufzyErP7ALN-gytk0I.YuiMXTV9KaYVXmXvfARQvtjshcKFkgI'
p5
sS'_accessed_time'
p6
F1414166453.1555851
sS'email'
p7
Vtyler1314321@gmail.com
p8
sS'_creation_time'
p9
F1414166178.315603
ss.