(dp1
S'session'
p2
(dp3
S'unique_user'
p4
S'4/bZ6t4oMM0ai53K-w7SmsNLeBEnDPnmgPghx1XGIbhe8.Qh-ZuruYMvocXmXvfARQvtggPZuFkgI'
p5
sS'_accessed_time'
p6
F1414164896.3233609
sS'email'
p7
Vtyler1314321@gmail.com
p8
sS'_creation_time'
p9
F1414164891.156477
ss.