(dp1
S'session'
p2
(dp3
S'unique_user'
p4
S'4/hscVZpVZvbOCROij16ynL5KtCARltqT0vsMenadzIlg.MjFSwVwAW7AcXmXvfARQvtjgbtiFkgI'
p5
sS'_accessed_time'
p6
F1414167189.235363
sS'email'
p7
Vtyler1314321@gmail.com
p8
sS'_creation_time'
p9
F1414166895.7066481
ss.