(dp1
S'session'
p2
(dp3
S'unique_user'
p4
S'4/MkpyABNnjxxKotLlQeiH5OP3lhQ4hqniZLm-jzgedC4.YmdD4mV3sRcXXmXvfARQvthC9lqFkgI'
p5
sS'_accessed_time'
p6
F1414162943.16065
sS'email'
p7
Vtyler1314321@gmail.com
p8
sS'_creation_time'
p9
F1414162784.4029679
ss.