(dp1
S'session'
p2
(dp3
S'unique_user'
p4
S'4/3FiOaeNp_1p2F-RvbEZ_A_K2flfNTp7lbVZ1lD4MpHs.kvHNlffbdHEWXmXvfARQvtjyAmaFkgI'
p5
sS'_accessed_time'
p6
F1414163411.860044
sS'email'
p7
Vtyler1314321@gmail.com
p8
sS'_creation_time'
p9
F1414163142.7381549
ss.